; Function Attrs: mustprogress nofree norecurse nosync nounwind willreturn memory(read, inaccessiblemem: none) uwtable
define hidden noundef zeroext i1 @_ZN3smt10theory_str18is_concat_eq_type1EP4exprS2_(ptr noundef nonnull readonly align 8 captures(none) dereferenceable(1800) %0, ptr noundef readonly captures(none) %1, ptr noundef readonly captures(none) %2) local_unnamed_addr #13 align 2 {
  %4 = getelementptr inbounds nuw i8, ptr %1, i64 32
  %5 = load ptr, ptr %4, align 8, !tbaa !337
  %6 = getelementptr inbounds nuw i8, ptr %1, i64 40
  %7 = load ptr, ptr %6, align 8, !tbaa !337
  %8 = getelementptr inbounds nuw i8, ptr %2, i64 32
  %9 = load ptr, ptr %8, align 8, !tbaa !337
  %10 = getelementptr inbounds nuw i8, ptr %2, i64 40
  %11 = load ptr, ptr %10, align 8, !tbaa !337
  %12 = getelementptr inbounds nuw i8, ptr %0, i64 144
  %13 = load i32, ptr %12, align 8, !tbaa !164
  %14 = getelementptr inbounds nuw i8, ptr %5, i64 4
  %15 = load i32, ptr %14, align 4
  %16 = and i32 %15, 65535
  %17 = icmp eq i32 %16, 0
  br i1 %17, label %18, label %_ZNK8seq_util3str9is_stringEPK4expr.exit.thread

18:                                               ; preds = %3
  %19 = getelementptr inbounds nuw i8, ptr %5, i64 16
  %20 = load ptr, ptr %19, align 8, !tbaa !854
  %21 = getelementptr inbounds nuw i8, ptr %20, i64 24
  %22 = load ptr, ptr %21, align 8, !tbaa !855
  %.not.i.i.i.i = icmp eq ptr %22, null
  br i1 %.not.i.i.i.i, label %_ZNK8seq_util3str9is_stringEPK4expr.exit.thread, label %_ZNK8seq_util3str9is_stringEPK4expr.exit

_ZNK8seq_util3str9is_stringEPK4expr.exit:         ; preds = %18
  %23 = load i32, ptr %22, align 8, !tbaa !858
  %24 = icmp eq i32 %23, %13
  %25 = getelementptr inbounds nuw i8, ptr %22, i64 4
  %26 = load i32, ptr %25, align 4
  %27 = icmp eq i32 %26, 41
  %28 = select i1 %24, i1 %27, i1 false
  br i1 %28, label %74, label %_ZNK8seq_util3str9is_stringEPK4expr.exit.thread

_ZNK8seq_util3str9is_stringEPK4expr.exit.thread:  ; preds = %18, %3, %_ZNK8seq_util3str9is_stringEPK4expr.exit
  %29 = getelementptr inbounds nuw i8, ptr %7, i64 4
  %30 = load i32, ptr %29, align 4
  %31 = and i32 %30, 65535
  %32 = icmp eq i32 %31, 0
  br i1 %32, label %33, label %_ZNK8seq_util3str9is_stringEPK4expr.exit11.thread

33:                                               ; preds = %_ZNK8seq_util3str9is_stringEPK4expr.exit.thread
  %34 = getelementptr inbounds nuw i8, ptr %7, i64 16
  %35 = load ptr, ptr %34, align 8, !tbaa !854
  %36 = getelementptr inbounds nuw i8, ptr %35, i64 24
  %37 = load ptr, ptr %36, align 8, !tbaa !855
  %.not.i.i.i.i10 = icmp eq ptr %37, null
  br i1 %.not.i.i.i.i10, label %_ZNK8seq_util3str9is_stringEPK4expr.exit11.thread, label %_ZNK8seq_util3str9is_stringEPK4expr.exit11

_ZNK8seq_util3str9is_stringEPK4expr.exit11:       ; preds = %33
  %38 = load i32, ptr %37, align 8, !tbaa !858
  %39 = icmp eq i32 %38, %13
  %40 = getelementptr inbounds nuw i8, ptr %37, i64 4
  %41 = load i32, ptr %40, align 4
  %42 = icmp eq i32 %41, 41
  %43 = select i1 %39, i1 %42, i1 false
  br i1 %43, label %74, label %_ZNK8seq_util3str9is_stringEPK4expr.exit11.thread

_ZNK8seq_util3str9is_stringEPK4expr.exit11.thread: ; preds = %33, %_ZNK8seq_util3str9is_stringEPK4expr.exit.thread, %_ZNK8seq_util3str9is_stringEPK4expr.exit11
  %44 = getelementptr inbounds nuw i8, ptr %9, i64 4
  %45 = load i32, ptr %44, align 4
  %46 = and i32 %45, 65535
  %47 = icmp eq i32 %46, 0
  br i1 %47, label %48, label %_ZNK8seq_util3str9is_stringEPK4expr.exit13.thread

48:                                               ; preds = %_ZNK8seq_util3str9is_stringEPK4expr.exit11.thread
  %49 = getelementptr inbounds nuw i8, ptr %9, i64 16
  %50 = load ptr, ptr %49, align 8, !tbaa !854
  %51 = getelementptr inbounds nuw i8, ptr %50, i64 24
  %52 = load ptr, ptr %51, align 8, !tbaa !855
  %.not.i.i.i.i12 = icmp eq ptr %52, null
  br i1 %.not.i.i.i.i12, label %_ZNK8seq_util3str9is_stringEPK4expr.exit13.thread, label %_ZNK8seq_util3str9is_stringEPK4expr.exit13

_ZNK8seq_util3str9is_stringEPK4expr.exit13:       ; preds = %48
  %53 = load i32, ptr %52, align 8, !tbaa !858
  %54 = icmp eq i32 %53, %13
  %55 = getelementptr inbounds nuw i8, ptr %52, i64 4
  %56 = load i32, ptr %55, align 4
  %57 = icmp eq i32 %56, 41
  %58 = select i1 %54, i1 %57, i1 false
  br i1 %58, label %74, label %_ZNK8seq_util3str9is_stringEPK4expr.exit13.thread

_ZNK8seq_util3str9is_stringEPK4expr.exit13.thread: ; preds = %48, %_ZNK8seq_util3str9is_stringEPK4expr.exit11.thread, %_ZNK8seq_util3str9is_stringEPK4expr.exit13
  %59 = getelementptr inbounds nuw i8, ptr %11, i64 4
  %60 = load i32, ptr %59, align 4
  %61 = and i32 %60, 65535
  %62 = icmp eq i32 %61, 0
  br i1 %62, label %63, label %_ZNK8seq_util3str9is_stringEPK4expr.exit15.thread

63:                                               ; preds = %_ZNK8seq_util3str9is_stringEPK4expr.exit13.thread
  %64 = getelementptr inbounds nuw i8, ptr %11, i64 16
  %65 = load ptr, ptr %64, align 8, !tbaa !854
  %66 = getelementptr inbounds nuw i8, ptr %65, i64 24
  %67 = load ptr, ptr %66, align 8, !tbaa !855
  %.not.i.i.i.i14 = icmp eq ptr %67, null
  br i1 %.not.i.i.i.i14, label %_ZNK8seq_util3str9is_stringEPK4expr.exit15.thread, label %_ZNK8seq_util3str9is_stringEPK4expr.exit15

_ZNK8seq_util3str9is_stringEPK4expr.exit15:       ; preds = %63
  %68 = load i32, ptr %67, align 8, !tbaa !858
  %69 = icmp eq i32 %68, %13
  %70 = getelementptr inbounds nuw i8, ptr %67, i64 4
  %71 = load i32, ptr %70, align 4
  %72 = icmp eq i32 %71, 41
  %73 = select i1 %69, i1 %72, i1 false
  br i1 %73, label %74, label %_ZNK8seq_util3str9is_stringEPK4expr.exit15.thread

74:                                               ; preds = %_ZNK8seq_util3str9is_stringEPK4expr.exit15, %_ZNK8seq_util3str9is_stringEPK4expr.exit13, %_ZNK8seq_util3str9is_stringEPK4expr.exit11, %_ZNK8seq_util3str9is_stringEPK4expr.exit
  br label %_ZNK8seq_util3str9is_stringEPK4expr.exit15.thread

_ZNK8seq_util3str9is_stringEPK4expr.exit15.thread: ; preds = %63, %_ZNK8seq_util3str9is_stringEPK4expr.exit13.thread, %_ZNK8seq_util3str9is_stringEPK4expr.exit15, %74
  %.0 = phi i1 [ false, %74 ], [ true, %_ZNK8seq_util3str9is_stringEPK4expr.exit15 ], [ true, %_ZNK8seq_util3str9is_stringEPK4expr.exit13.thread ], [ true, %63 ]
  ret i1 %.0
}